; ModuleID = '23/146.c'
source_filename = "23/146.c"
target datalayout = "e-m:e-p270:32:32-p271:32:32-p272:64:64-i64:64-f80:128-n8:16:32:64-S128"
target triple = "x86_64-pc-linux-gnu"

@.str = private unnamed_addr constant [4 x i8] c"%s \00", align 1
@.str.1 = private unnamed_addr constant [3 x i8] c"%s\00", align 1

; Function Attrs: noinline nounwind uwtable
define dso_local void @main() #0 {
  %1 = alloca i32, align 4
  %2 = alloca i32, align 4
  %3 = alloca i32, align 4
  %4 = alloca i32, align 4
  %5 = alloca [101 x i8], align 16
  %6 = alloca [50 x [30 x i8]], align 16
  %7 = getelementptr inbounds [101 x i8], [101 x i8]* %5, i64 0, i64 0
  %8 = call i32 (i8*, ...) bitcast (i32 (...)* @gets to i32 (i8*, ...)*)(i8* %7)
  %9 = getelementptr inbounds [101 x i8], [101 x i8]* %5, i64 0, i64 0
  %10 = call i64 @strlen(i8* %9) #3
  %11 = trunc i64 %10 to i32
  store i32 %11, i32* %4, align 4
  store i32 0, i32* %2, align 4
  store i32 0, i32* %3, align 4
  store i32 0, i32* %1, align 4
  br label %12

12:                                               ; preds = %46, %0
  %13 = load i32, i32* %1, align 4
  %14 = load i32, i32* %4, align 4
  %15 = icmp slt i32 %13, %14
  br i1 %15, label %16, label %49

16:                                               ; preds = %12
  %17 = load i32, i32* %1, align 4
  %18 = sext i32 %17 to i64
  %19 = getelementptr inbounds [101 x i8], [101 x i8]* %5, i64 0, i64 %18
  %20 = load i8, i8* %19, align 1
  %21 = sext i8 %20 to i32
  %22 = icmp ne i32 %21, 32
  br i1 %22, label %23, label %36

23:                                               ; preds = %16
  %24 = load i32, i32* %1, align 4
  %25 = sext i32 %24 to i64
  %26 = getelementptr inbounds [101 x i8], [101 x i8]* %5, i64 0, i64 %25
  %27 = load i8, i8* %26, align 1
  %28 = load i32, i32* %2, align 4
  %29 = sext i32 %28 to i64
  %30 = getelementptr inbounds [50 x [30 x i8]], [50 x [30 x i8]]* %6, i64 0, i64 %29
  %31 = load i32, i32* %3, align 4
  %32 = sext i32 %31 to i64
  %33 = getelementptr inbounds [30 x i8], [30 x i8]* %30, i64 0, i64 %32
  store i8 %27, i8* %33, align 1
  %34 = load i32, i32* %3, align 4
  %35 = add nsw i32 %34, 1
  store i32 %35, i32* %3, align 4
  br label %45

36:                                               ; preds = %16
  %37 = load i32, i32* %2, align 4
  %38 = sext i32 %37 to i64
  %39 = getelementptr inbounds [50 x [30 x i8]], [50 x [30 x i8]]* %6, i64 0, i64 %38
  %40 = load i32, i32* %3, align 4
  %41 = sext i32 %40 to i64
  %42 = getelementptr inbounds [30 x i8], [30 x i8]* %39, i64 0, i64 %41
  store i8 0, i8* %42, align 1
  %43 = load i32, i32* %2, align 4
  %44 = add nsw i32 %43, 1
  store i32 %44, i32* %2, align 4
  store i32 0, i32* %3, align 4
  br label %45

45:                                               ; preds = %36, %23
  br label %46

46:                                               ; preds = %45
  %47 = load i32, i32* %1, align 4
  %48 = add nsw i32 %47, 1
  store i32 %48, i32* %1, align 4
  br label %12

49:                                               ; preds = %12
  %50 = load i32, i32* %2, align 4
  %51 = sext i32 %50 to i64
  %52 = getelementptr inbounds [50 x [30 x i8]], [50 x [30 x i8]]* %6, i64 0, i64 %51
  %53 = load i32, i32* %3, align 4
  %54 = sext i32 %53 to i64
  %55 = getelementptr inbounds [30 x i8], [30 x i8]* %52, i64 0, i64 %54
  store i8 0, i8* %55, align 1
  %56 = load i32, i32* %2, align 4
  store i32 %56, i32* %1, align 4
  br label %57

57:                                               ; preds = %66, %49
  %58 = load i32, i32* %1, align 4
  %59 = icmp sgt i32 %58, 0
  br i1 %59, label %60, label %69

60:                                               ; preds = %57
  %61 = load i32, i32* %1, align 4
  %62 = sext i32 %61 to i64
  %63 = getelementptr inbounds [50 x [30 x i8]], [50 x [30 x i8]]* %6, i64 0, i64 %62
  %64 = getelementptr inbounds [30 x i8], [30 x i8]* %63, i64 0, i64 0
  %65 = call i32 (i8*, ...) @printf(i8* getelementptr inbounds ([4 x i8], [4 x i8]* @.str, i64 0, i64 0), i8* %64)
  br label %66

66:                                               ; preds = %60
  %67 = load i32, i32* %1, align 4
  %68 = add nsw i32 %67, -1
  store i32 %68, i32* %1, align 4
  br label %57

69:                                               ; preds = %57
  %70 = getelementptr inbounds [50 x [30 x i8]], [50 x [30 x i8]]* %6, i64 0, i64 0
  %71 = getelementptr inbounds [30 x i8], [30 x i8]* %70, i64 0, i64 0
  %72 = call i32 (i8*, ...) @printf(i8* getelementptr inbounds ([3 x i8], [3 x i8]* @.str.1, i64 0, i64 0), i8* %71)
  ret void
}

declare dso_local i32 @gets(...) #1

; Function Attrs: nounwind readonly
declare dso_local i64 @strlen(i8*) #2

declare dso_local i32 @printf(i8*, ...) #1


!llvm.module.flags = !{!0}
!llvm.ident = !{!1}

!0 = !{i32 1, !"wchar_size", i32 4}
!1 = !{!"clang version 10.0.0-4ubuntu1 "}
